; Function Attrs: nounwind sspstrong uwtable
define dso_local void @timer_mod_anticipate_ns(ptr noundef %ts, i64 noundef %expire_time) local_unnamed_addr #0 {
entry:
  %timer_list1 = getelementptr inbounds nuw i8, ptr %ts, i64 8
  %0 = load ptr, ptr %timer_list1, align 8
  %active_timers_lock = getelementptr inbounds nuw i8, ptr %0, i64 8
  %1 = load atomic i64, ptr @qemu_mutex_lock_func monotonic, align 8
  %2 = inttoptr i64 %1 to ptr
  tail call void %2(ptr noundef nonnull %active_timers_lock, ptr noundef nonnull @.str.3, i32 noundef 122) #17
  %active_timers.i = getelementptr inbounds nuw i8, ptr %0, i64 56
  %cond.i = tail call i64 @llvm.smax.i64(i64 %expire_time, i64 0)
  %next2.i = getelementptr inbounds nuw i8, ptr %ts, i64 32
  %3 = ptrtoint ptr %ts to i64
  %4 = load i64, ptr %ts, align 8
  %cmp = icmp eq i64 %4, -1
  %cmp4 = icmp sgt i64 %4, %expire_time
  %or.cond = or i1 %cmp, %cmp4
  br i1 %or.cond, label %if.then, label %qemu_lockable_auto_unlock.exit.thread

qemu_lockable_auto_unlock.exit.thread:            ; preds = %entry
  tail call void @qemu_mutex_unlock_impl(ptr noundef nonnull %active_timers_lock, ptr noundef nonnull @.str.3, i32 noundef 132) #17
  br label %if.end12

if.then:                                          ; preds = %entry
  br i1 %cmp, label %if.end, label %if.then7

if.then7:                                         ; preds = %if.then
  store i64 -1, ptr %ts, align 8
  %5 = load ptr, ptr %active_timers.i, align 8
  %tobool.not8.i = icmp eq ptr %5, null
  br i1 %tobool.not8.i, label %qemu_lockable_auto_unlock.exit, label %if.end.i.preheader

if.end.i.preheader:                               ; preds = %if.then7
  %cmp.i24 = icmp eq ptr %5, %ts
  br i1 %cmp.i24, label %while.end.i, label %if.end4.i

if.end.i:                                         ; preds = %if.end4.i
  %cmp.i = icmp eq ptr %9, %ts
  br i1 %cmp.i, label %while.end.i.loopexit, label %if.end4.i

while.end.i.loopexit:                             ; preds = %if.end.i
  %next5.i.le = getelementptr inbounds nuw i8, ptr %8, i64 32
  br label %while.end.i

while.end.i:                                      ; preds = %while.end.i.loopexit, %if.end.i.preheader
  %.lcssa = phi ptr [ %5, %if.end.i.preheader ], [ %9, %while.end.i.loopexit ]
  %pt.09.i.lcssa = phi ptr [ %active_timers.i, %if.end.i.preheader ], [ %next5.i.le, %while.end.i.loopexit ]
  %next.i = getelementptr inbounds nuw i8, ptr %.lcssa, i64 32
  %6 = load ptr, ptr %next.i, align 8
  %7 = ptrtoint ptr %6 to i64
  store atomic i64 %7, ptr %pt.09.i.lcssa monotonic, align 8
  br label %if.end

if.end4.i:                                        ; preds = %if.end.i.preheader, %if.end.i
  %8 = phi ptr [ %9, %if.end.i ], [ %5, %if.end.i.preheader ]
  %next5.i = getelementptr inbounds nuw i8, ptr %8, i64 32
  %9 = load ptr, ptr %next5.i, align 8
  %tobool.not.i = icmp eq ptr %9, null
  br i1 %tobool.not.i, label %if.end, label %if.end.i

if.end:                                           ; preds = %if.end4.i, %while.end.i, %if.then
  %.pr = load ptr, ptr %active_timers.i, align 8
  %tobool.not.i11.i = icmp eq ptr %.pr, null
  br i1 %tobool.not.i11.i, label %qemu_lockable_auto_unlock.exit, label %timer_expired_ns.exit.i.preheader

timer_expired_ns.exit.i.preheader:                ; preds = %if.end
  %10 = load i64, ptr %.pr, align 8
  %cmp.i.not.i26 = icmp sgt i64 %10, %expire_time
  br i1 %cmp.i.not.i26, label %qemu_lockable_auto_unlock.exit, label %for.cond.i

for.cond.i:                                       ; preds = %timer_expired_ns.exit.i.preheader, %timer_expired_ns.exit.i
  %11 = phi ptr [ %12, %timer_expired_ns.exit.i ], [ %.pr, %timer_expired_ns.exit.i.preheader ]
  %next.i11 = getelementptr inbounds nuw i8, ptr %11, i64 32
  %12 = load ptr, ptr %next.i11, align 8
  %tobool.not.i.i12 = icmp eq ptr %12, null
  br i1 %tobool.not.i.i12, label %qemu_lockable_auto_unlock.exit.loopexit, label %timer_expired_ns.exit.i

timer_expired_ns.exit.i:                          ; preds = %for.cond.i
  %13 = load i64, ptr %12, align 8
  %cmp.i.not.i = icmp sgt i64 %13, %expire_time
  br i1 %cmp.i.not.i, label %qemu_lockable_auto_unlock.exit.loopexit, label %for.cond.i

qemu_lockable_auto_unlock.exit.loopexit:          ; preds = %timer_expired_ns.exit.i, %for.cond.i
  %next.i11.le = getelementptr inbounds nuw i8, ptr %11, i64 32
  br label %qemu_lockable_auto_unlock.exit

qemu_lockable_auto_unlock.exit:                   ; preds = %qemu_lockable_auto_unlock.exit.loopexit, %if.then7, %if.end, %timer_expired_ns.exit.i.preheader
  %pt.0.lcssa.i = phi ptr [ %active_timers.i, %if.end ], [ %active_timers.i, %timer_expired_ns.exit.i.preheader ], [ %active_timers.i, %if.then7 ], [ %next.i11.le, %qemu_lockable_auto_unlock.exit.loopexit ]
  store i64 %cond.i, ptr %ts, align 8
  %14 = load ptr, ptr %pt.0.lcssa.i, align 8
  store ptr %14, ptr %next2.i, align 8
  store atomic i64 %3, ptr %pt.0.lcssa.i monotonic, align 8
  %cmp6.i = icmp eq ptr %pt.0.lcssa.i, %active_timers.i
  tail call void @qemu_mutex_unlock_impl(ptr noundef nonnull %active_timers_lock, ptr noundef nonnull @.str.3, i32 noundef 132) #17
  br i1 %cmp6.i, label %if.then11, label %if.end12

if.then11:                                        ; preds = %qemu_lockable_auto_unlock.exit
  %15 = load i32, ptr @use_icount, align 4
  %tobool.not.i17 = icmp eq i32 %15, 0
  br i1 %tobool.not.i17, label %if.end.i19, label %land.lhs.true.i

land.lhs.true.i:                                  ; preds = %if.then11
  %16 = load ptr, ptr %0, align 8
  %type.i = getelementptr inbounds nuw i8, ptr %16, i64 8
  %17 = load i32, ptr %type.i, align 8
  %cmp.i18 = icmp eq i32 %17, 1
  br i1 %cmp.i18, label %if.then.i21, label %if.end.i19

if.then.i21:                                      ; preds = %land.lhs.true.i
  tail call void @icount_start_warp_timer() #17
  br label %if.end.i19

if.end.i19:                                       ; preds = %if.then.i21, %land.lhs.true.i, %if.then11
  %notify_cb.i.i = getelementptr inbounds nuw i8, ptr %0, i64 80
  %18 = load ptr, ptr %notify_cb.i.i, align 8
  %tobool.not.i.i20 = icmp eq ptr %18, null
  br i1 %tobool.not.i.i20, label %if.else.i.i, label %if.then.i.i

if.then.i.i:                                      ; preds = %if.end.i19
  %notify_opaque.i.i = getelementptr inbounds nuw i8, ptr %0, i64 88
  %19 = load ptr, ptr %notify_opaque.i.i, align 8
  %20 = load ptr, ptr %0, align 8
  %type.i.i = getelementptr inbounds nuw i8, ptr %20, i64 8
  %21 = load i32, ptr %type.i.i, align 8
  tail call void %18(ptr noundef %19, i32 noundef %21) #17
  br label %if.end12

if.else.i.i:                                      ; preds = %if.end.i19
  tail call void @qemu_notify_event() #17
  br label %if.end12

if.end12:                                         ; preds = %qemu_lockable_auto_unlock.exit.thread, %if.else.i.i, %if.then.i.i, %qemu_lockable_auto_unlock.exit
  ret void
}